; Function Attrs: nounwind uwtable
define noundef ptr @Hop_ManDfsNode(ptr noundef readnone captures(none) %0, ptr noundef %1) local_unnamed_addr #0 {
  %3 = tail call noalias dereferenceable_or_null(16) ptr @malloc(i64 noundef 16) #10
  %4 = getelementptr inbounds nuw i8, ptr %3, i64 4
  store i32 0, ptr %4, align 4, !tbaa !11
  store i32 16, ptr %3, align 8, !tbaa !13
  %5 = tail call noalias dereferenceable_or_null(128) ptr @malloc(i64 noundef 128) #10
  %6 = getelementptr inbounds nuw i8, ptr %3, i64 8
  store ptr %5, ptr %6, align 8, !tbaa !14
  tail call void @Hop_ManDfs_rec(ptr noundef %1, ptr noundef nonnull %3)
  %.val9 = load i32, ptr %4, align 4, !tbaa !11
  %7 = icmp sgt i32 %.val9, 0
  br i1 %7, label %.lr.ph, label %.critedge

.lr.ph:                                           ; preds = %2, %.lr.ph
  %indvars.iv = phi i64 [ %indvars.iv.next, %.lr.ph ], [ 0, %2 ]
  %.val8 = load ptr, ptr %6, align 8, !tbaa !14
  %8 = getelementptr inbounds nuw ptr, ptr %.val8, i64 %indvars.iv
  %9 = load ptr, ptr %8, align 8, !tbaa !15
  %10 = getelementptr inbounds nuw i8, ptr %9, i64 32
  %11 = load i32, ptr %10, align 8
  %12 = and i32 %11, -17
  store i32 %12, ptr %10, align 8
  %indvars.iv.next = add nuw nsw i64 %indvars.iv, 1
  %.val = load i32, ptr %4, align 4, !tbaa !11
  %13 = sext i32 %.val to i64
  %14 = icmp slt i64 %indvars.iv.next, %13
  br i1 %14, label %.lr.ph, label %.critedge, !llvm.loop !27

.critedge:                                        ; preds = %.lr.ph, %2
  ret ptr %3
}